target datalayout = "e-m:e-p270:32:32-p271:32:32-p272:64:64-i64:64-i128:128-f80:128-n8:16:32:64-S128"
target triple = "x86_64-pc-linux-gnu"

%struct._zval_struct = type { %union._zend_value, %union.anon, %union.anon.2 }
%union._zend_value = type { i64 }
%union.anon = type { i32 }
%union.anon.2 = type { i32 }
%struct._zend_array = type { %struct._zend_refcounted_h, %union.anon.4, i32, %union.anon.6, i32, i32, i32, i32, i64, ptr }
%struct._zend_refcounted_h = type { i32, %union.anon.3 }
%union.anon.3 = type { i32 }
%union.anon.4 = type { i32 }
%union.anon.6 = type { ptr }
%struct._spl_array_object = type { %struct._zval_struct, i32, i32, i8, i8, ptr, ptr, ptr, ptr, ptr, ptr, ptr, %struct._zend_object }
%struct._zend_object = type { %struct._zend_refcounted_h, i32, ptr, ptr, ptr, [1 x %struct._zval_struct] }
%struct._zend_string = type { %struct._zend_refcounted_h, i64, i64, [1 x i8] }
%struct._Bucket = type { %struct._zval_struct, i64, ptr }

; Function Attrs: nounwind uwtable
define internal ptr @spl_array_from_obj(ptr noundef %0) #0 {
  %2 = alloca ptr, align 8
  store ptr %0, ptr %2, align 8
  %3 = load ptr, ptr %2, align 8
  %4 = getelementptr inbounds i8, ptr %3, i64 -88
  ret ptr %4
}

; Function Attrs: nounwind uwtable
define internal ptr @spl_array_get_hash_table_ptr(ptr noundef %0) #0 {
  %2 = alloca ptr, align 8
  %3 = alloca ptr, align 8
  %4 = alloca ptr, align 8
  %5 = alloca i32, align 4
  %6 = alloca ptr, align 8
  %7 = alloca ptr, align 8
  %8 = alloca ptr, align 8
  %9 = alloca ptr, align 8
  store ptr %0, ptr %7, align 8
  %10 = load ptr, ptr %7, align 8
  %11 = getelementptr inbounds %struct._spl_array_object, ptr %10, i32 0, i32 2
  %12 = load i32, ptr %11, align 4
  %13 = and i32 %12, 16777216
  %14 = icmp ne i32 %13, 0
  br i1 %14, label %15, label %28

15:                                               ; preds = %1
  %16 = load ptr, ptr %7, align 8
  %17 = getelementptr inbounds %struct._spl_array_object, ptr %16, i32 0, i32 12
  %18 = getelementptr inbounds %struct._zend_object, ptr %17, i32 0, i32 4
  %19 = load ptr, ptr %18, align 8
  %20 = icmp ne ptr %19, null
  br i1 %20, label %24, label %21

21:                                               ; preds = %15
  %22 = load ptr, ptr %7, align 8
  %23 = getelementptr inbounds %struct._spl_array_object, ptr %22, i32 0, i32 12
  call void @rebuild_object_properties(ptr noundef %23)
  br label %24

24:                                               ; preds = %21, %15
  %25 = load ptr, ptr %7, align 8
  %26 = getelementptr inbounds %struct._spl_array_object, ptr %25, i32 0, i32 12
  %27 = getelementptr inbounds %struct._zend_object, ptr %26, i32 0, i32 4
  store ptr %27, ptr %6, align 8
  br label %112

28:                                               ; preds = %1
  %29 = load ptr, ptr %7, align 8
  %30 = getelementptr inbounds %struct._spl_array_object, ptr %29, i32 0, i32 2
  %31 = load i32, ptr %30, align 4
  %32 = and i32 %31, 33554432
  %33 = icmp ne i32 %32, 0
  br i1 %33, label %34, label %42

34:                                               ; preds = %28
  %35 = load ptr, ptr %7, align 8
  %36 = getelementptr inbounds %struct._spl_array_object, ptr %35, i32 0, i32 0
  %37 = getelementptr inbounds %struct._zval_struct, ptr %36, i32 0, i32 0
  %38 = load ptr, ptr %37, align 8
  %39 = call ptr @spl_array_from_obj(ptr noundef %38)
  store ptr %39, ptr %8, align 8
  %40 = load ptr, ptr %8, align 8
  %41 = call ptr @spl_array_get_hash_table_ptr(ptr noundef %40)
  store ptr %41, ptr %6, align 8
  br label %112

42:                                               ; preds = %28
  %43 = load ptr, ptr %7, align 8
  %44 = getelementptr inbounds %struct._spl_array_object, ptr %43, i32 0, i32 0
  store ptr %44, ptr %4, align 8
  %45 = load ptr, ptr %4, align 8
  %46 = getelementptr inbounds %struct._zval_struct, ptr %45, i32 0, i32 1
  %47 = load i8, ptr %46, align 8
  %48 = zext i8 %47 to i32
  %49 = icmp eq i32 %48, 7
  br i1 %49, label %50, label %54

50:                                               ; preds = %42
  %51 = load ptr, ptr %7, align 8
  %52 = getelementptr inbounds %struct._spl_array_object, ptr %51, i32 0, i32 0
  %53 = getelementptr inbounds %struct._zval_struct, ptr %52, i32 0, i32 0
  store ptr %53, ptr %6, align 8
  br label %112

54:                                               ; preds = %42
  %55 = load ptr, ptr %7, align 8
  %56 = getelementptr inbounds %struct._spl_array_object, ptr %55, i32 0, i32 0
  %57 = getelementptr inbounds %struct._zval_struct, ptr %56, i32 0, i32 0
  %58 = load ptr, ptr %57, align 8
  store ptr %58, ptr %9, align 8
  %59 = load ptr, ptr %9, align 8
  %60 = getelementptr inbounds %struct._zend_object, ptr %59, i32 0, i32 4
  %61 = load ptr, ptr %60, align 8
  %62 = icmp ne ptr %61, null
  br i1 %62, label %65, label %63

63:                                               ; preds = %54
  %64 = load ptr, ptr %9, align 8
  call void @rebuild_object_properties(ptr noundef %64)
  br label %109

65:                                               ; preds = %54
  %66 = load ptr, ptr %9, align 8
  %67 = getelementptr inbounds %struct._zend_object, ptr %66, i32 0, i32 4
  %68 = load ptr, ptr %67, align 8
  %69 = getelementptr inbounds %struct._zend_array, ptr %68, i32 0, i32 0
  store ptr %69, ptr %3, align 8
  %70 = load ptr, ptr %3, align 8
  %71 = load i32, ptr %70, align 4
  %72 = icmp ugt i32 %71, 1
  br i1 %72, label %73, label %108

73:                                               ; preds = %65
  %74 = load ptr, ptr %9, align 8
  %75 = getelementptr inbounds %struct._zend_object, ptr %74, i32 0, i32 4
  %76 = load ptr, ptr %75, align 8
  %77 = getelementptr inbounds %struct._zend_array, ptr %76, i32 0, i32 0
  %78 = getelementptr inbounds %struct._zend_refcounted_h, ptr %77, i32 0, i32 1
  %79 = load i32, ptr %78, align 4
  store i32 %79, ptr %5, align 4
  %80 = load i32, ptr %5, align 4
  %81 = and i32 %80, 1008
  %82 = and i32 %81, 64
  %83 = icmp ne i32 %82, 0
  %84 = xor i1 %83, true
  %85 = xor i1 %84, true
  %86 = xor i1 %85, true
  %87 = zext i1 %86 to i32
  %88 = sext i32 %87 to i64
  %89 = icmp ne i64 %88, 0
  br i1 %89, label %90, label %101

90:                                               ; preds = %73
  %91 = load ptr, ptr %9, align 8
  %92 = getelementptr inbounds %struct._zend_object, ptr %91, i32 0, i32 4
  %93 = load ptr, ptr %92, align 8
  %94 = getelementptr inbounds %struct._zend_array, ptr %93, i32 0, i32 0
  store ptr %94, ptr %2, align 8
  %95 = load ptr, ptr %2, align 8
  %96 = load i32, ptr %95, align 4
  %97 = icmp ugt i32 %96, 0
  call void @llvm.assume(i1 %97)
  %98 = load ptr, ptr %2, align 8
  %99 = load i32, ptr %98, align 4
  %100 = add i32 %99, -1
  store i32 %100, ptr %98, align 4
  br label %101

101:                                              ; preds = %90, %73
  %102 = load ptr, ptr %9, align 8
  %103 = getelementptr inbounds %struct._zend_object, ptr %102, i32 0, i32 4
  %104 = load ptr, ptr %103, align 8
  %105 = call ptr @zend_array_dup(ptr noundef %104)
  %106 = load ptr, ptr %9, align 8
  %107 = getelementptr inbounds %struct._zend_object, ptr %106, i32 0, i32 4
  store ptr %105, ptr %107, align 8
  br label %108

108:                                              ; preds = %101, %65
  br label %109

109:                                              ; preds = %108, %63
  %110 = load ptr, ptr %9, align 8
  %111 = getelementptr inbounds %struct._zend_object, ptr %110, i32 0, i32 4
  store ptr %111, ptr %6, align 8
  br label %112

112:                                              ; preds = %109, %50, %34, %24
  %113 = load ptr, ptr %6, align 8
  ret ptr %113
}

; Function Attrs: nounwind uwtable
define internal zeroext i1 @spl_array_is_object(ptr noundef %0) #0 {
  %2 = alloca ptr, align 8
  %3 = alloca ptr, align 8
  store ptr %0, ptr %3, align 8
  br label %4

4:                                                ; preds = %10, %1
  %5 = load ptr, ptr %3, align 8
  %6 = getelementptr inbounds %struct._spl_array_object, ptr %5, i32 0, i32 2
  %7 = load i32, ptr %6, align 4
  %8 = and i32 %7, 33554432
  %9 = icmp ne i32 %8, 0
  br i1 %9, label %10, label %16

10:                                               ; preds = %4
  %11 = load ptr, ptr %3, align 8
  %12 = getelementptr inbounds %struct._spl_array_object, ptr %11, i32 0, i32 0
  %13 = getelementptr inbounds %struct._zval_struct, ptr %12, i32 0, i32 0
  %14 = load ptr, ptr %13, align 8
  %15 = call ptr @spl_array_from_obj(ptr noundef %14)
  store ptr %15, ptr %3, align 8
  br label %4

16:                                               ; preds = %4
  %17 = load ptr, ptr %3, align 8
  %18 = getelementptr inbounds %struct._spl_array_object, ptr %17, i32 0, i32 2
  %19 = load i32, ptr %18, align 4
  %20 = and i32 %19, 16777216
  %21 = icmp ne i32 %20, 0
  br i1 %21, label %30, label %22

22:                                               ; preds = %16
  %23 = load ptr, ptr %3, align 8
  %24 = getelementptr inbounds %struct._spl_array_object, ptr %23, i32 0, i32 0
  store ptr %24, ptr %2, align 8
  %25 = load ptr, ptr %2, align 8
  %26 = getelementptr inbounds %struct._zval_struct, ptr %25, i32 0, i32 1
  %27 = load i8, ptr %26, align 8
  %28 = zext i8 %27 to i32
  %29 = icmp eq i32 %28, 8
  br label %30

30:                                               ; preds = %22, %16
  %31 = phi i1 [ true, %16 ], [ %29, %22 ]
  ret i1 %31
}

; Function Attrs: nounwind uwtable
define internal ptr @spl_array_get_hash_table(ptr noundef %0) #0 {
  %2 = alloca ptr, align 8
  store ptr %0, ptr %2, align 8
  %3 = load ptr, ptr %2, align 8
  %4 = call ptr @spl_array_get_hash_table_ptr(ptr noundef %3)
  %5 = load ptr, ptr %4, align 8
  ret ptr %5
}

; Function Attrs: nounwind uwtable
define internal i64 @spl_array_object_count_elements_helper(ptr noundef %0) #0 {
  %2 = alloca ptr, align 8
  %3 = alloca ptr, align 8
  %4 = alloca ptr, align 8
  %5 = alloca ptr, align 8
  %6 = alloca i64, align 8
  %7 = alloca ptr, align 8
  %8 = alloca ptr, align 8
  %9 = alloca i64, align 8
  %10 = alloca ptr, align 8
  %11 = alloca ptr, align 8
  %12 = alloca ptr, align 8
  %13 = alloca i64, align 8
  %14 = alloca ptr, align 8
  %15 = alloca i32, align 4
  %16 = alloca i64, align 8
  %17 = alloca ptr, align 8
  %18 = alloca i32, align 4
  %19 = alloca ptr, align 8
  %20 = alloca ptr, align 8
  store ptr %0, ptr %7, align 8
  %21 = load ptr, ptr %7, align 8
  %22 = call ptr @spl_array_get_hash_table(ptr noundef %21)
  store ptr %22, ptr %8, align 8
  %23 = load ptr, ptr %7, align 8
  %24 = call zeroext i1 @spl_array_is_object(ptr noundef %23)
  br i1 %24, label %25, label %130

25:                                               ; preds = %1
  store i64 0, ptr %9, align 8
  br label %26

26:                                               ; preds = %25
  %27 = load ptr, ptr %8, align 8
  store ptr %27, ptr %12, align 8
  store ptr null, ptr %14, align 8
  store i32 0, ptr %15, align 4
  %28 = load ptr, ptr %12, align 8
  %29 = getelementptr inbounds %struct._zend_array, ptr %28, i32 0, i32 1
  %30 = load i32, ptr %29, align 8
  %31 = xor i32 %30, -1
  %32 = and i32 %31, 4
  %33 = zext i32 %32 to i64
  %34 = mul i64 %33, 4
  %35 = add i64 16, %34
  store i64 %35, ptr %16, align 8
  %36 = load ptr, ptr %12, align 8
  %37 = getelementptr inbounds %struct._zend_array, ptr %36, i32 0, i32 3
  %38 = load ptr, ptr %37, align 8
  %39 = load i32, ptr %15, align 4
  %40 = zext i32 %39 to i64
  %41 = load i64, ptr %16, align 8
  %42 = mul i64 %40, %41
  %43 = getelementptr inbounds i8, ptr %38, i64 %42
  store ptr %43, ptr %17, align 8
  %44 = load ptr, ptr %12, align 8
  %45 = getelementptr inbounds %struct._zend_array, ptr %44, i32 0, i32 4
  %46 = load i32, ptr %45, align 8
  %47 = load i32, ptr %15, align 4
  %48 = sub i32 %46, %47
  store i32 %48, ptr %18, align 4
  br label %49

49:                                               ; preds = %124, %26
  %50 = load i32, ptr %18, align 4
  %51 = icmp ugt i32 %50, 0
  br i1 %51, label %52, label %127

52:                                               ; preds = %49
  %53 = load ptr, ptr %17, align 8
  store ptr %53, ptr %19, align 8
  %54 = load ptr, ptr %12, align 8
  %55 = getelementptr inbounds %struct._zend_array, ptr %54, i32 0, i32 1
  %56 = load i32, ptr %55, align 8
  %57 = and i32 %56, 4
  %58 = icmp ne i32 %57, 0
  br i1 %58, label %59, label %66

59:                                               ; preds = %52
  %60 = load ptr, ptr %17, align 8
  %61 = getelementptr inbounds %struct._zval_struct, ptr %60, i32 1
  store ptr %61, ptr %17, align 8
  %62 = load i32, ptr %15, align 4
  %63 = zext i32 %62 to i64
  store i64 %63, ptr %13, align 8
  %64 = load i32, ptr %15, align 4
  %65 = add i32 %64, 1
  store i32 %65, ptr %15, align 4
  br label %77

66:                                               ; preds = %52
  %67 = load ptr, ptr %17, align 8
  store ptr %67, ptr %20, align 8
  %68 = load ptr, ptr %20, align 8
  %69 = getelementptr inbounds %struct._Bucket, ptr %68, i64 1
  %70 = getelementptr inbounds %struct._Bucket, ptr %69, i32 0, i32 0
  store ptr %70, ptr %17, align 8
  %71 = load ptr, ptr %20, align 8
  %72 = getelementptr inbounds %struct._Bucket, ptr %71, i32 0, i32 1
  %73 = load i64, ptr %72, align 8
  store i64 %73, ptr %13, align 8
  %74 = load ptr, ptr %20, align 8
  %75 = getelementptr inbounds %struct._Bucket, ptr %74, i32 0, i32 2
  %76 = load ptr, ptr %75, align 8
  store ptr %76, ptr %14, align 8
  br label %77

77:                                               ; preds = %66, %59
  %78 = load ptr, ptr %19, align 8
  store ptr %78, ptr %3, align 8
  %79 = load ptr, ptr %3, align 8
  %80 = getelementptr inbounds %struct._zval_struct, ptr %79, i32 0, i32 1
  %81 = load i8, ptr %80, align 8
  %82 = zext i8 %81 to i32
  %83 = icmp eq i32 %82, 0
  %84 = xor i1 %83, true
  %85 = xor i1 %84, true
  %86 = zext i1 %85 to i32
  %87 = sext i32 %86 to i64
  %88 = icmp ne i64 %87, 0
  br i1 %88, label %89, label %90

89:                                               ; preds = %77
  br label %124

90:                                               ; preds = %77
  %91 = load ptr, ptr %14, align 8
  store ptr %91, ptr %10, align 8
  %92 = load ptr, ptr %19, align 8
  store ptr %92, ptr %11, align 8
  %93 = load ptr, ptr %11, align 8
  store ptr %93, ptr %4, align 8
  %94 = load ptr, ptr %4, align 8
  %95 = getelementptr inbounds %struct._zval_struct, ptr %94, i32 0, i32 1
  %96 = load i8, ptr %95, align 8
  %97 = zext i8 %96 to i32
  %98 = icmp eq i32 %97, 12
  br i1 %98, label %99, label %121

99:                                               ; preds = %90
  %100 = load ptr, ptr %11, align 8
  %101 = getelementptr inbounds %struct._zval_struct, ptr %100, i32 0, i32 0
  %102 = load ptr, ptr %101, align 8
  store ptr %102, ptr %5, align 8
  %103 = load ptr, ptr %5, align 8
  %104 = getelementptr inbounds %struct._zval_struct, ptr %103, i32 0, i32 1
  %105 = load i8, ptr %104, align 8
  %106 = zext i8 %105 to i32
  %107 = icmp eq i32 %106, 0
  br i1 %107, label %108, label %109

108:                                              ; preds = %99
  br label %124

109:                                              ; preds = %99
  %110 = load ptr, ptr %10, align 8
  %111 = icmp ne ptr %110, null
  br i1 %111, label %112, label %120

112:                                              ; preds = %109
  %113 = load ptr, ptr %10, align 8
  %114 = getelementptr inbounds %struct._zend_string, ptr %113, i32 0, i32 3
  %115 = getelementptr inbounds [1 x i8], ptr %114, i64 0, i64 0
  %116 = load i8, ptr %115, align 8
  %117 = sext i8 %116 to i32
  %118 = icmp eq i32 %117, 0
  br i1 %118, label %119, label %120

119:                                              ; preds = %112
  br label %124

120:                                              ; preds = %112, %109
  br label %121

121:                                              ; preds = %120, %90
  %122 = load i64, ptr %9, align 8
  %123 = add nsw i64 %122, 1
  store i64 %123, ptr %9, align 8
  br label %124

124:                                              ; preds = %121, %119, %108, %89
  %125 = load i32, ptr %18, align 4
  %126 = add i32 %125, -1
  store i32 %126, ptr %18, align 4
  br label %49

127:                                              ; preds = %49
  br label %128

128:                                              ; preds = %127
  %129 = load i64, ptr %9, align 8
  store i64 %129, ptr %6, align 8
  br label %136

130:                                              ; preds = %1
  %131 = load ptr, ptr %8, align 8
  store ptr %131, ptr %2, align 8
  %132 = load ptr, ptr %2, align 8
  %133 = getelementptr inbounds %struct._zend_array, ptr %132, i32 0, i32 5
  %134 = load i32, ptr %133, align 4
  %135 = zext i32 %134 to i64
  store i64 %135, ptr %6, align 8
  br label %136

136:                                              ; preds = %130, %128
  %137 = load i64, ptr %6, align 8
  ret i64 %137
}