; Function Attrs: nounwind uwtable
define internal fastcc i64 @spl_array_object_count_elements_helper(ptr noundef %0) unnamed_addr #0 {
  %2 = getelementptr inbounds i8, ptr %0, i64 20
  %3 = load i32, ptr %2, align 4
  %4 = and i32 %3, 16777216
  %.not30.i.i = icmp eq i32 %4, 0
  br i1 %.not30.i.i, label %.lr.ph.i.i, label %tailrecurse._crit_edge.i.i

tailrecurse._crit_edge.i.i:                       ; preds = %tailrecurse.i.i, %1
  %.tr.lcssa.i.i = phi ptr [ %0, %1 ], [ %12, %tailrecurse.i.i ]
  %5 = getelementptr inbounds i8, ptr %.tr.lcssa.i.i, i64 120
  %6 = load ptr, ptr %5, align 8
  %.not28.i.i = icmp eq ptr %6, null
  br i1 %.not28.i.i, label %7, label %spl_array_get_hash_table.exit

7:                                                ; preds = %tailrecurse._crit_edge.i.i
  %8 = getelementptr inbounds i8, ptr %.tr.lcssa.i.i, i64 88
  tail call void @rebuild_object_properties(ptr noundef nonnull %8) #11
  br label %spl_array_get_hash_table.exit

.lr.ph.i.i:                                       ; preds = %1, %tailrecurse.i.i
  %9 = phi i32 [ %14, %tailrecurse.i.i ], [ %3, %1 ]
  %.tr31.i.i = phi ptr [ %12, %tailrecurse.i.i ], [ %0, %1 ]
  %10 = and i32 %9, 33554432
  %.not25.i.i = icmp eq i32 %10, 0
  br i1 %.not25.i.i, label %16, label %tailrecurse.i.i

tailrecurse.i.i:                                  ; preds = %.lr.ph.i.i
  %11 = load ptr, ptr %.tr31.i.i, align 8
  %12 = getelementptr inbounds i8, ptr %11, i64 -88
  %13 = getelementptr inbounds i8, ptr %11, i64 -68
  %14 = load i32, ptr %13, align 4
  %15 = and i32 %14, 16777216
  %.not.i.i = icmp eq i32 %15, 0
  br i1 %.not.i.i, label %.lr.ph.i.i, label %tailrecurse._crit_edge.i.i

16:                                               ; preds = %.lr.ph.i.i
  %17 = getelementptr inbounds i8, ptr %.tr31.i.i, i64 8
  %18 = load i8, ptr %17, align 8
  %19 = icmp eq i8 %18, 7
  br i1 %19, label %spl_array_get_hash_table.exit, label %20

20:                                               ; preds = %16
  %21 = load ptr, ptr %.tr31.i.i, align 8
  %22 = getelementptr inbounds i8, ptr %21, i64 32
  %23 = load ptr, ptr %22, align 8
  %.not26.i.i = icmp eq ptr %23, null
  br i1 %.not26.i.i, label %24, label %25

24:                                               ; preds = %20
  tail call void @rebuild_object_properties(ptr noundef nonnull %21) #11
  br label %spl_array_get_hash_table.exit

25:                                               ; preds = %20
  %26 = load i32, ptr %23, align 4
  %27 = icmp ugt i32 %26, 1
  br i1 %27, label %28, label %spl_array_get_hash_table.exit

28:                                               ; preds = %25
  %29 = getelementptr inbounds i8, ptr %23, i64 4
  %30 = load i32, ptr %29, align 4
  %31 = and i32 %30, 64
  %.not27.i.i = icmp eq i32 %31, 0
  br i1 %.not27.i.i, label %32, label %34

32:                                               ; preds = %28
  %33 = add i32 %26, -1
  store i32 %33, ptr %23, align 4
  %.pre.i.i = load ptr, ptr %22, align 8
  br label %34

34:                                               ; preds = %32, %28
  %35 = phi ptr [ %.pre.i.i, %32 ], [ %23, %28 ]
  %36 = tail call ptr @zend_array_dup(ptr noundef %35) #11
  store ptr %36, ptr %22, align 8
  br label %spl_array_get_hash_table.exit

spl_array_get_hash_table.exit:                    ; preds = %tailrecurse._crit_edge.i.i, %7, %16, %24, %25, %34
  %.0.i.i = phi ptr [ %5, %7 ], [ %5, %tailrecurse._crit_edge.i.i ], [ %.tr31.i.i, %16 ], [ %22, %25 ], [ %22, %34 ], [ %22, %24 ]
  %37 = load ptr, ptr %.0.i.i, align 8
  %38 = load i32, ptr %2, align 4
  %39 = and i32 %38, 33554432
  %.not6.i = icmp eq i32 %39, 0
  br i1 %.not6.i, label %._crit_edge.i, label %.lr.ph.i

.lr.ph.i:                                         ; preds = %spl_array_get_hash_table.exit, %.lr.ph.i
  %.07.i = phi ptr [ %41, %.lr.ph.i ], [ %0, %spl_array_get_hash_table.exit ]
  %40 = load ptr, ptr %.07.i, align 8
  %41 = getelementptr inbounds i8, ptr %40, i64 -88
  %42 = getelementptr inbounds i8, ptr %40, i64 -68
  %43 = load i32, ptr %42, align 4
  %44 = and i32 %43, 33554432
  %.not.i = icmp eq i32 %44, 0
  br i1 %.not.i, label %._crit_edge.i, label %.lr.ph.i

._crit_edge.i:                                    ; preds = %.lr.ph.i, %spl_array_get_hash_table.exit
  %.0.lcssa.i = phi ptr [ %0, %spl_array_get_hash_table.exit ], [ %41, %.lr.ph.i ]
  %.lcssa.i = phi i32 [ %38, %spl_array_get_hash_table.exit ], [ %43, %.lr.ph.i ]
  %45 = and i32 %.lcssa.i, 16777216
  %.not5.i = icmp eq i32 %45, 0
  br i1 %.not5.i, label %spl_array_is_object.exit, label %spl_array_is_object.exit.thread

spl_array_is_object.exit:                         ; preds = %._crit_edge.i
  %46 = getelementptr inbounds i8, ptr %.0.lcssa.i, i64 8
  %47 = load i8, ptr %46, align 8
  %48 = icmp eq i8 %47, 8
  br i1 %48, label %spl_array_is_object.exit.thread, label %87

spl_array_is_object.exit.thread:                  ; preds = %._crit_edge.i, %spl_array_is_object.exit
  %49 = getelementptr inbounds i8, ptr %37, i64 24
  %50 = load i32, ptr %49, align 8
  %.not48 = icmp eq i32 %50, 0
  br i1 %.not48, label %.loopexit, label %.lr.ph

.lr.ph:                                           ; preds = %spl_array_is_object.exit.thread
  %51 = getelementptr inbounds i8, ptr %37, i64 16
  %52 = load ptr, ptr %51, align 8
  %53 = getelementptr inbounds i8, ptr %37, i64 8
  %54 = load i32, ptr %53, align 8
  %55 = and i32 %54, 4
  %.not43 = icmp eq i32 %55, 0
  br i1 %.not43, label %.lr.ph.split.us, label %.lr.ph.split

.lr.ph.split.us:                                  ; preds = %.lr.ph, %73
  %.03453.us = phi i64 [ %.1.us, %73 ], [ 0, %.lr.ph ]
  %.03552.us = phi i32 [ %74, %73 ], [ %50, %.lr.ph ]
  %.03651.us = phi ptr [ %56, %73 ], [ %52, %.lr.ph ]
  %56 = getelementptr inbounds i8, ptr %.03651.us, i64 32
  %57 = getelementptr inbounds i8, ptr %.03651.us, i64 24
  %58 = load ptr, ptr %57, align 8
  %59 = getelementptr inbounds i8, ptr %.03651.us, i64 8
  %60 = load i8, ptr %59, align 8
  switch i8 %60, label %71 [
    i8 0, label %73
    i8 12, label %61
  ]

61:                                               ; preds = %.lr.ph.split.us
  %62 = load ptr, ptr %.03651.us, align 8
  %63 = getelementptr inbounds i8, ptr %62, i64 8
  %64 = load i8, ptr %63, align 8
  %65 = icmp eq i8 %64, 0
  br i1 %65, label %73, label %66

66:                                               ; preds = %61
  %.not44.us = icmp eq ptr %58, null
  br i1 %.not44.us, label %71, label %67

67:                                               ; preds = %66
  %68 = getelementptr inbounds i8, ptr %58, i64 24
  %69 = load i8, ptr %68, align 8
  %70 = icmp eq i8 %69, 0
  br i1 %70, label %73, label %71

71:                                               ; preds = %67, %66, %.lr.ph.split.us
  %72 = add nsw i64 %.03453.us, 1
  br label %73

73:                                               ; preds = %71, %67, %61, %.lr.ph.split.us
  %.1.us = phi i64 [ %.03453.us, %.lr.ph.split.us ], [ %.03453.us, %61 ], [ %.03453.us, %67 ], [ %72, %71 ]
  %74 = add i32 %.03552.us, -1
  %.not.us = icmp eq i32 %74, 0
  br i1 %.not.us, label %.loopexit, label %.lr.ph.split.us

.lr.ph.split:                                     ; preds = %.lr.ph, %85
  %.03453 = phi i64 [ %.1, %85 ], [ 0, %.lr.ph ]
  %.03552 = phi i32 [ %86, %85 ], [ %50, %.lr.ph ]
  %.03651 = phi ptr [ %75, %85 ], [ %52, %.lr.ph ]
  %75 = getelementptr inbounds i8, ptr %.03651, i64 16
  %76 = getelementptr inbounds i8, ptr %.03651, i64 8
  %77 = load i8, ptr %76, align 8
  switch i8 %77, label %83 [
    i8 0, label %85
    i8 12, label %78
  ]

78:                                               ; preds = %.lr.ph.split
  %79 = load ptr, ptr %.03651, align 8
  %80 = getelementptr inbounds i8, ptr %79, i64 8
  %81 = load i8, ptr %80, align 8
  %82 = icmp eq i8 %81, 0
  br i1 %82, label %85, label %83

83:                                               ; preds = %78, %.lr.ph.split
  %84 = add nsw i64 %.03453, 1
  br label %85

85:                                               ; preds = %.lr.ph.split, %78, %83
  %.1 = phi i64 [ %.03453, %.lr.ph.split ], [ %.03453, %78 ], [ %84, %83 ]
  %86 = add i32 %.03552, -1
  %.not = icmp eq i32 %86, 0
  br i1 %.not, label %.loopexit, label %.lr.ph.split

87:                                               ; preds = %spl_array_is_object.exit
  %88 = getelementptr inbounds i8, ptr %37, i64 28
  %89 = load i32, ptr %88, align 4
  %90 = zext i32 %89 to i64
  br label %.loopexit

.loopexit:                                        ; preds = %85, %73, %spl_array_is_object.exit.thread, %87
  %.0 = phi i64 [ %90, %87 ], [ 0, %spl_array_is_object.exit.thread ], [ %.1.us, %73 ], [ %.1, %85 ]
  ret i64 %.0
}